target datalayout = "e-m:e-p270:32:32-p271:32:32-p272:64:64-i64:64-i128:128-f80:128-n8:16:32:64-S128"
target triple = "x86_64-pc-linux-gnu"

%struct.dwt_local = type { ptr, i32, i32, i32 }
%struct.opj_dwt_decode_h_job_t = type { %struct.dwt_local, i32, i32, ptr, i32, i32 }

; Function Attrs: nounwind uwtable
define internal void @opj_dwt_decode_h_func(ptr noundef %0, ptr noundef %1) #0 {
  %3 = alloca ptr, align 8
  %4 = alloca ptr, align 8
  %5 = alloca i32, align 4
  %6 = alloca ptr, align 8
  store ptr %0, ptr %3, align 8, !tbaa !20
  store ptr %1, ptr %4, align 8, !tbaa !164
  call void @llvm.lifetime.start.p0(i64 4, ptr %5) #9
  call void @llvm.lifetime.start.p0(i64 8, ptr %6) #9
  %7 = load ptr, ptr %3, align 8, !tbaa !20
  store ptr %7, ptr %6, align 8, !tbaa !20
  %8 = load ptr, ptr %6, align 8, !tbaa !20
  %9 = getelementptr inbounds nuw %struct.opj_dwt_decode_h_job_t, ptr %8, i32 0, i32 4
  %10 = load i32, ptr %9, align 8, !tbaa !84
  store i32 %10, ptr %5, align 4, !tbaa !24
  br label %11

11:                                               ; preds = %30, %2
  %12 = load i32, ptr %5, align 4, !tbaa !24
  %13 = load ptr, ptr %6, align 8, !tbaa !20
  %14 = getelementptr inbounds nuw %struct.opj_dwt_decode_h_job_t, ptr %13, i32 0, i32 5
  %15 = load i32, ptr %14, align 4, !tbaa !85
  %16 = icmp ult i32 %12, %15
  br i1 %16, label %17, label %33

17:                                               ; preds = %11
  %18 = load ptr, ptr %6, align 8, !tbaa !20
  %19 = getelementptr inbounds nuw %struct.opj_dwt_decode_h_job_t, ptr %18, i32 0, i32 0
  %20 = load ptr, ptr %6, align 8, !tbaa !20
  %21 = getelementptr inbounds nuw %struct.opj_dwt_decode_h_job_t, ptr %20, i32 0, i32 3
  %22 = load ptr, ptr %21, align 8, !tbaa !83
  %23 = load i32, ptr %5, align 4, !tbaa !24
  %24 = load ptr, ptr %6, align 8, !tbaa !20
  %25 = getelementptr inbounds nuw %struct.opj_dwt_decode_h_job_t, ptr %24, i32 0, i32 2
  %26 = load i32, ptr %25, align 4, !tbaa !82
  %27 = mul i32 %23, %26
  %28 = zext i32 %27 to i64
  %29 = getelementptr inbounds nuw i32, ptr %22, i64 %28
  call void @opj_idwt53_h(ptr noundef %19, ptr noundef %29)
  br label %30

30:                                               ; preds = %17
  %31 = load i32, ptr %5, align 4, !tbaa !24
  %32 = add i32 %31, 1
  store i32 %32, ptr %5, align 4, !tbaa !24
  br label %11, !llvm.loop !185

33:                                               ; preds = %11
  %34 = load ptr, ptr %6, align 8, !tbaa !20
  %35 = getelementptr inbounds nuw %struct.opj_dwt_decode_h_job_t, ptr %34, i32 0, i32 0
  %36 = getelementptr inbounds nuw %struct.dwt_local, ptr %35, i32 0, i32 0
  %37 = load ptr, ptr %36, align 8, !tbaa !86
  call void @opj_aligned_free(ptr noundef %37)
  %38 = load ptr, ptr %6, align 8, !tbaa !20
  call void @opj_free(ptr noundef %38)
  call void @llvm.lifetime.end.p0(i64 8, ptr %6) #9
  call void @llvm.lifetime.end.p0(i64 4, ptr %5) #9
  ret void
}