; Function Attrs: nounwind uwtable
define internal void @opj_dwt_decode_h_func(ptr noundef %0, ptr readnone captures(none) %1) #0 {
  %3 = getelementptr inbounds nuw i8, ptr %0, i64 40
  %4 = load i32, ptr %3, align 8, !tbaa !100
  %5 = getelementptr inbounds nuw i8, ptr %0, i64 44
  %6 = load i32, ptr %5, align 4, !tbaa !101
  %7 = icmp ult i32 %4, %6
  br i1 %7, label %.lr.ph, label %._crit_edge

.lr.ph:                                           ; preds = %2
  %8 = getelementptr inbounds nuw i8, ptr %0, i64 32
  %9 = getelementptr inbounds nuw i8, ptr %0, i64 28
  br label %10

10:                                               ; preds = %.lr.ph, %10
  %.010 = phi i32 [ %4, %.lr.ph ], [ %16, %10 ]
  %11 = load ptr, ptr %8, align 8, !tbaa !99
  %12 = load i32, ptr %9, align 4, !tbaa !98
  %13 = mul i32 %12, %.010
  %14 = zext i32 %13 to i64
  %15 = getelementptr inbounds nuw i32, ptr %11, i64 %14
  tail call fastcc void @opj_idwt53_h(ptr noundef nonnull %0, ptr noundef %15)
  %16 = add nuw i32 %.010, 1
  %17 = load i32, ptr %5, align 4, !tbaa !101
  %18 = icmp ult i32 %16, %17
  br i1 %18, label %10, label %._crit_edge, !llvm.loop !264

._crit_edge:                                      ; preds = %10, %2
  %19 = load ptr, ptr %0, align 8, !tbaa !102
  tail call void @opj_aligned_free(ptr noundef %19) #16
  tail call void @opj_free(ptr noundef nonnull %0) #16
  ret void
}